(dp1
S'session'
p2
(dp3
S'_accessed_time'
p4
F1543884785.0176649
sS'pic'
p5
Vhttps://lh4.googleusercontent.com/-AzUEj395a7s/AAAAAAAAAAI/AAAAAAAAAAA/lPPBL_zmCFY/photo.jpg
p6
sS'user_name'
p7
Vjason wu
p8
sS'_creation_time'
p9
F1543884508.6097801
sS'user_email'
p10
Vhuolun2005@gmail.com
p11
ss.