(dp1
S'session'
p2
(dp3
S'user_name'
p4
Vjason wu
p5
sS'pic'
p6
Vhttps://lh4.googleusercontent.com/-AzUEj395a7s/AAAAAAAAAAI/AAAAAAAAAAA/lPPBL_zmCFY/photo.jpg
p7
sS'_accessed_time'
p8
F1543886077.026489
sS'user_email'
p9
Vhuolun2005@gmail.com
p10
sS'_creation_time'
p11
F1543885797.0337009
ss.