(dp1
S'session'
p2
(dp3
S'_accessed_time'
p4
F1539920389.798852
sS'pic'
p5
Vhttps://lh4.googleusercontent.com/-5cdNSOMRKW0/AAAAAAAAAAI/AAAAAAAAAC8/3Um6VcSYAqc/photo.jpg
p6
sS'user_name'
p7
VJennifer Wang
p8
sS'_creation_time'
p9
F1539920162.755877
sS'user_email'
p10
Vjennifer.wang342@gmail.com
p11
ss.