(dp1
S'session'
p2
(dp3
S'user_name'
p4
VJennifer Wang
p5
sS'pic'
p6
Vhttps://lh4.googleusercontent.com/-5cdNSOMRKW0/AAAAAAAAAAI/AAAAAAAAAC8/3Um6VcSYAqc/photo.jpg
p7
sS'_accessed_time'
p8
F1539922939.336952
sS'user_email'
p9
Vjennifer.wang342@gmail.com
p10
sS'_creation_time'
p11
F1539921881.5640841
ss.